#include <math.h>
#include <stdio.h>
#include <stdlib.h>
#include <string.h>

int main()
{
	int k,i,n,j,count,r=0;
	int a[1000];
	scanf("%d%d",&n,&k);
	for(i=0;i<n;i++)
	{
		scanf("%d",&a[i]);
	}
	for(i=0;i<n;i++)
	{
		for(j=i+1;j<n;j++)
		{
			count=a[i]+a[j];
		
			if(count==k)
			{
				printf("yes");
				break;
			}
			if(count!=k)
			{
				r++;
			}
		}
            if(count==k)
             {
                  break;
               }
	}
	if(r==(n*(n-1)/2)&&(a[n-1]+a[n-2])!=k)
	{
		printf("no");
	}
	return 0;
}
